target datalayout = "e-m:e-p270:32:32-p271:32:32-p272:64:64-i64:64-i128:128-f80:128-n8:16:32:64-S128"
target triple = "x86_64-pc-linux-gnu"

%struct._GtsObjectClassInfo = type { [40 x i8], i32, i32, ptr, ptr, ptr, ptr }
%struct._GtsObject = type { ptr, ptr, i32 }
%struct._GtsSegment = type { %struct._GtsObject, ptr, ptr }
%struct._GtsObjectClass = type { %struct._GtsObjectClassInfo, ptr, ptr, ptr, ptr, ptr, ptr, ptr }

@__func__.gts_object_is_from_class = private unnamed_addr constant [25 x i8] c"gts_object_is_from_class\00", align 1
@.str.2 = private unnamed_addr constant [14 x i8] c"klass != NULL\00", align 1
@.str.3 = private unnamed_addr constant [10 x i8] c"c != NULL\00", align 1

; Function Attrs: inlinehint nounwind uwtable
define internal ptr @gts_object_is_from_class(ptr noundef %0, ptr noundef %1) #2 {
  %3 = alloca ptr, align 8
  %4 = alloca ptr, align 8
  %5 = alloca ptr, align 8
  %6 = alloca ptr, align 8
  %7 = alloca i32, align 4
  %8 = alloca i32, align 4
  %9 = alloca i32, align 4
  %10 = alloca i32, align 4
  %11 = alloca i32, align 4
  store ptr %0, ptr %4, align 8, !tbaa !25
  store ptr %1, ptr %5, align 8, !tbaa !25
  call void @llvm.lifetime.start.p0(i64 8, ptr %6) #12
  br label %12

12:                                               ; preds = %2
  call void @llvm.lifetime.start.p0(i64 4, ptr %7) #12
  %13 = load ptr, ptr %5, align 8, !tbaa !25
  %14 = icmp ne ptr %13, null
  br i1 %14, label %15, label %16

15:                                               ; preds = %12
  store i32 1, ptr %7, align 4, !tbaa !8
  br label %17

16:                                               ; preds = %12
  store i32 0, ptr %7, align 4, !tbaa !8
  br label %17

17:                                               ; preds = %16, %15
  %18 = load i32, ptr %7, align 4, !tbaa !8
  store i32 %18, ptr %8, align 4, !tbaa !8
  call void @llvm.lifetime.end.p0(i64 4, ptr %7) #12
  %19 = load i32, ptr %8, align 4, !tbaa !8
  %20 = sext i32 %19 to i64
  %21 = call i64 @llvm.expect.i64(i64 %20, i64 1)
  %22 = icmp ne i64 %21, 0
  br i1 %22, label %23, label %24

23:                                               ; preds = %17
  br label %25

24:                                               ; preds = %17
  call void @g_return_if_fail_warning(ptr noundef null, ptr noundef @__func__.gts_object_is_from_class, ptr noundef @.str.2)
  store ptr null, ptr %3, align 8
  store i32 1, ptr %9, align 4
  br label %65

25:                                               ; preds = %23
  br label %26

26:                                               ; preds = %25
  br label %27

27:                                               ; preds = %26
  %28 = load ptr, ptr %4, align 8, !tbaa !25
  %29 = icmp eq ptr %28, null
  br i1 %29, label %30, label %31

30:                                               ; preds = %27
  store ptr null, ptr %3, align 8
  store i32 1, ptr %9, align 4
  br label %65

31:                                               ; preds = %27
  %32 = load ptr, ptr %4, align 8, !tbaa !25
  %33 = getelementptr inbounds nuw %struct._GtsObject, ptr %32, i32 0, i32 0
  %34 = load ptr, ptr %33, align 8, !tbaa !102
  store ptr %34, ptr %6, align 8, !tbaa !103
  br label %35

35:                                               ; preds = %31
  call void @llvm.lifetime.start.p0(i64 4, ptr %10) #12
  %36 = load ptr, ptr %6, align 8, !tbaa !103
  %37 = icmp ne ptr %36, null
  br i1 %37, label %38, label %39

38:                                               ; preds = %35
  store i32 1, ptr %10, align 4, !tbaa !8
  br label %40

39:                                               ; preds = %35
  store i32 0, ptr %10, align 4, !tbaa !8
  br label %40

40:                                               ; preds = %39, %38
  %41 = load i32, ptr %10, align 4, !tbaa !8
  store i32 %41, ptr %11, align 4, !tbaa !8
  call void @llvm.lifetime.end.p0(i64 4, ptr %10) #12
  %42 = load i32, ptr %11, align 4, !tbaa !8
  %43 = sext i32 %42 to i64
  %44 = call i64 @llvm.expect.i64(i64 %43, i64 1)
  %45 = icmp ne i64 %44, 0
  br i1 %45, label %46, label %47

46:                                               ; preds = %40
  br label %48

47:                                               ; preds = %40
  call void @g_return_if_fail_warning(ptr noundef null, ptr noundef @__func__.gts_object_is_from_class, ptr noundef @.str.3)
  store ptr null, ptr %3, align 8
  store i32 1, ptr %9, align 4
  br label %65

48:                                               ; preds = %46
  br label %49

49:                                               ; preds = %48
  br label %50

50:                                               ; preds = %49
  br label %51

51:                                               ; preds = %60, %50
  %52 = load ptr, ptr %6, align 8, !tbaa !103
  %53 = icmp ne ptr %52, null
  br i1 %53, label %54, label %64

54:                                               ; preds = %51
  %55 = load ptr, ptr %6, align 8, !tbaa !103
  %56 = load ptr, ptr %5, align 8, !tbaa !25
  %57 = icmp eq ptr %55, %56
  br i1 %57, label %58, label %60

58:                                               ; preds = %54
  %59 = load ptr, ptr %4, align 8, !tbaa !25
  store ptr %59, ptr %3, align 8
  store i32 1, ptr %9, align 4
  br label %65

60:                                               ; preds = %54
  %61 = load ptr, ptr %6, align 8, !tbaa !103
  %62 = getelementptr inbounds nuw %struct._GtsObjectClass, ptr %61, i32 0, i32 1
  %63 = load ptr, ptr %62, align 8, !tbaa !104
  store ptr %63, ptr %6, align 8, !tbaa !103
  br label %51, !llvm.loop !107

64:                                               ; preds = %51
  store ptr null, ptr %3, align 8
  store i32 1, ptr %9, align 4
  br label %65

65:                                               ; preds = %64, %58, %47, %30, %24
  call void @llvm.lifetime.end.p0(i64 8, ptr %6) #12
  %66 = load ptr, ptr %3, align 8
  ret ptr %66
}

; Function Attrs: nounwind uwtable
define internal i32 @triangle_is_hole(ptr noundef %0, ptr noundef %1) #0 {
  %3 = alloca i32, align 4
  %4 = alloca ptr, align 8
  %5 = alloca ptr, align 8
  %6 = alloca ptr, align 8
  %7 = alloca ptr, align 8
  %8 = alloca ptr, align 8
  %9 = alloca ptr, align 8
  %10 = alloca ptr, align 8
  %11 = alloca ptr, align 8
  %12 = alloca ptr, align 8
  %13 = alloca i32, align 4
  store ptr %0, ptr %4, align 8, !tbaa !25
  store ptr %1, ptr %5, align 8, !tbaa !25
  call void @llvm.lifetime.start.p0(i64 8, ptr %6) #12
  %14 = load ptr, ptr %4, align 8, !tbaa !25
  store ptr %14, ptr %6, align 8, !tbaa !46
  call void @llvm.lifetime.start.p0(i64 8, ptr %7) #12
  call void @llvm.lifetime.start.p0(i64 8, ptr %8) #12
  call void @llvm.lifetime.start.p0(i64 8, ptr %9) #12
  call void @llvm.lifetime.start.p0(i64 8, ptr %10) #12
  call void @llvm.lifetime.start.p0(i64 8, ptr %11) #12
  call void @llvm.lifetime.start.p0(i64 8, ptr %12) #12
  %15 = load ptr, ptr %6, align 8, !tbaa !46
  call void @gts_triangle_vertices_edges(ptr noundef %15, ptr noundef null, ptr noundef %10, ptr noundef %11, ptr noundef %12, ptr noundef %7, ptr noundef %8, ptr noundef %9)
  %16 = load ptr, ptr %7, align 8, !tbaa !42
  %17 = call ptr @gts_constraint_class()
  %18 = call ptr @gts_object_is_from_class(ptr noundef %16, ptr noundef %17)
  %19 = icmp ne ptr %18, null
  br i1 %19, label %20, label %26

20:                                               ; preds = %2
  %21 = load ptr, ptr %7, align 8, !tbaa !42
  %22 = getelementptr inbounds nuw %struct._GtsSegment, ptr %21, i32 0, i32 1
  %23 = load ptr, ptr %22, align 8, !tbaa !62
  %24 = load ptr, ptr %10, align 8, !tbaa !52
  %25 = icmp ne ptr %23, %24
  br i1 %25, label %48, label %26

26:                                               ; preds = %20, %2
  %27 = load ptr, ptr %8, align 8, !tbaa !42
  %28 = call ptr @gts_constraint_class()
  %29 = call ptr @gts_object_is_from_class(ptr noundef %27, ptr noundef %28)
  %30 = icmp ne ptr %29, null
  br i1 %30, label %31, label %37

31:                                               ; preds = %26
  %32 = load ptr, ptr %8, align 8, !tbaa !42
  %33 = getelementptr inbounds nuw %struct._GtsSegment, ptr %32, i32 0, i32 1
  %34 = load ptr, ptr %33, align 8, !tbaa !62
  %35 = load ptr, ptr %11, align 8, !tbaa !52
  %36 = icmp ne ptr %34, %35
  br i1 %36, label %48, label %37

37:                                               ; preds = %31, %26
  %38 = load ptr, ptr %9, align 8, !tbaa !42
  %39 = call ptr @gts_constraint_class()
  %40 = call ptr @gts_object_is_from_class(ptr noundef %38, ptr noundef %39)
  %41 = icmp ne ptr %40, null
  br i1 %41, label %42, label %49

42:                                               ; preds = %37
  %43 = load ptr, ptr %9, align 8, !tbaa !42
  %44 = getelementptr inbounds nuw %struct._GtsSegment, ptr %43, i32 0, i32 1
  %45 = load ptr, ptr %44, align 8, !tbaa !62
  %46 = load ptr, ptr %12, align 8, !tbaa !52
  %47 = icmp ne ptr %45, %46
  br i1 %47, label %48, label %49

48:                                               ; preds = %42, %31, %20
  store i32 1, ptr %3, align 4
  store i32 1, ptr %13, align 4
  br label %50

49:                                               ; preds = %42, %37
  store i32 0, ptr %3, align 4
  store i32 1, ptr %13, align 4
  br label %50

50:                                               ; preds = %49, %48
  call void @llvm.lifetime.end.p0(i64 8, ptr %12) #12
  call void @llvm.lifetime.end.p0(i64 8, ptr %11) #12
  call void @llvm.lifetime.end.p0(i64 8, ptr %10) #12
  call void @llvm.lifetime.end.p0(i64 8, ptr %9) #12
  call void @llvm.lifetime.end.p0(i64 8, ptr %8) #12
  call void @llvm.lifetime.end.p0(i64 8, ptr %7) #12
  call void @llvm.lifetime.end.p0(i64 8, ptr %6) #12
  %51 = load i32, ptr %3, align 4
  ret i32 %51
}