; Function Attrs: nounwind uwtable
define internal range(i32 0, 2) i32 @triangle_is_hole(ptr noundef %0, ptr readnone captures(none) %1) #0 {
  %3 = alloca ptr, align 8
  %4 = alloca ptr, align 8
  %5 = alloca ptr, align 8
  %6 = alloca ptr, align 8
  %7 = alloca ptr, align 8
  %8 = alloca ptr, align 8
  call void @llvm.lifetime.start.p0(i64 8, ptr nonnull %3) #19
  call void @llvm.lifetime.start.p0(i64 8, ptr nonnull %4) #19
  call void @llvm.lifetime.start.p0(i64 8, ptr nonnull %5) #19
  call void @llvm.lifetime.start.p0(i64 8, ptr nonnull %6) #19
  call void @llvm.lifetime.start.p0(i64 8, ptr nonnull %7) #19
  call void @llvm.lifetime.start.p0(i64 8, ptr nonnull %8) #19
  call void @gts_triangle_vertices_edges(ptr noundef %0, ptr noundef null, ptr noundef nonnull %6, ptr noundef nonnull %7, ptr noundef nonnull %8, ptr noundef nonnull %3, ptr noundef nonnull %4, ptr noundef nonnull %5) #19
  %9 = load ptr, ptr %3, align 8, !tbaa !32
  %10 = call ptr @gts_constraint_class() #19
  %.not.i = icmp eq ptr %10, null
  br i1 %.not.i, label %.loopexit.sink.split.i, label %11, !prof !83

11:                                               ; preds = %2
  %12 = icmp eq ptr %9, null
  br i1 %12, label %gts_object_is_from_class.exit.thread, label %13

13:                                               ; preds = %11
  %14 = load ptr, ptr %9, align 8, !tbaa !84
  %.not18.i = icmp eq ptr %14, null
  br i1 %.not18.i, label %.loopexit.sink.split.i, label %.preheader.i, !prof !83

.preheader.i:                                     ; preds = %13, %16
  %.01421.i = phi ptr [ %18, %16 ], [ %14, %13 ]
  %15 = icmp eq ptr %.01421.i, %10
  br i1 %15, label %gts_object_is_from_class.exit, label %16

16:                                               ; preds = %.preheader.i
  %17 = getelementptr inbounds nuw i8, ptr %.01421.i, i64 80
  %18 = load ptr, ptr %17, align 8, !tbaa !85
  %.not20.i = icmp eq ptr %18, null
  br i1 %.not20.i, label %gts_object_is_from_class.exit.thread, label %.preheader.i, !llvm.loop !88

.loopexit.sink.split.i:                           ; preds = %13, %2
  %.str.3.sink.i = phi ptr [ @.str.2, %2 ], [ @.str.3, %13 ]
  call void @g_return_if_fail_warning(ptr noundef null, ptr noundef nonnull @__func__.gts_object_is_from_class, ptr noundef nonnull %.str.3.sink.i) #19
  br label %gts_object_is_from_class.exit.thread

gts_object_is_from_class.exit:                    ; preds = %.preheader.i
  %19 = load ptr, ptr %3, align 8, !tbaa !32
  %20 = getelementptr inbounds nuw i8, ptr %19, i64 24
  %21 = load ptr, ptr %20, align 8, !tbaa !50
  %22 = load ptr, ptr %6, align 8, !tbaa !42
  %.not2 = icmp eq ptr %21, %22
  br i1 %.not2, label %gts_object_is_from_class.exit.thread, label %51

gts_object_is_from_class.exit.thread:             ; preds = %16, %.loopexit.sink.split.i, %11, %gts_object_is_from_class.exit
  %23 = load ptr, ptr %4, align 8, !tbaa !32
  %24 = call ptr @gts_constraint_class() #19
  %.not.i7 = icmp eq ptr %24, null
  br i1 %.not.i7, label %.loopexit.sink.split.i13, label %25, !prof !83

25:                                               ; preds = %gts_object_is_from_class.exit.thread
  %26 = icmp eq ptr %23, null
  br i1 %26, label %gts_object_is_from_class.exit15.thread, label %27

27:                                               ; preds = %25
  %28 = load ptr, ptr %23, align 8, !tbaa !84
  %.not18.i8 = icmp eq ptr %28, null
  br i1 %.not18.i8, label %.loopexit.sink.split.i13, label %.preheader.i9, !prof !83

.preheader.i9:                                    ; preds = %27, %30
  %.01421.i10 = phi ptr [ %32, %30 ], [ %28, %27 ]
  %29 = icmp eq ptr %.01421.i10, %24
  br i1 %29, label %gts_object_is_from_class.exit15, label %30

30:                                               ; preds = %.preheader.i9
  %31 = getelementptr inbounds nuw i8, ptr %.01421.i10, i64 80
  %32 = load ptr, ptr %31, align 8, !tbaa !85
  %.not20.i11 = icmp eq ptr %32, null
  br i1 %.not20.i11, label %gts_object_is_from_class.exit15.thread, label %.preheader.i9, !llvm.loop !88

.loopexit.sink.split.i13:                         ; preds = %27, %gts_object_is_from_class.exit.thread
  %.str.3.sink.i14 = phi ptr [ @.str.2, %gts_object_is_from_class.exit.thread ], [ @.str.3, %27 ]
  call void @g_return_if_fail_warning(ptr noundef null, ptr noundef nonnull @__func__.gts_object_is_from_class, ptr noundef nonnull %.str.3.sink.i14) #19
  br label %gts_object_is_from_class.exit15.thread

gts_object_is_from_class.exit15:                  ; preds = %.preheader.i9
  %33 = load ptr, ptr %4, align 8, !tbaa !32
  %34 = getelementptr inbounds nuw i8, ptr %33, i64 24
  %35 = load ptr, ptr %34, align 8, !tbaa !50
  %36 = load ptr, ptr %7, align 8, !tbaa !42
  %.not4 = icmp eq ptr %35, %36
  br i1 %.not4, label %gts_object_is_from_class.exit15.thread, label %51

gts_object_is_from_class.exit15.thread:           ; preds = %30, %.loopexit.sink.split.i13, %25, %gts_object_is_from_class.exit15
  %37 = load ptr, ptr %5, align 8, !tbaa !32
  %38 = call ptr @gts_constraint_class() #19
  %.not.i16 = icmp eq ptr %38, null
  br i1 %.not.i16, label %.loopexit.sink.split.i22, label %39, !prof !83

39:                                               ; preds = %gts_object_is_from_class.exit15.thread
  %40 = icmp eq ptr %37, null
  br i1 %40, label %gts_object_is_from_class.exit24.thread, label %41

41:                                               ; preds = %39
  %42 = load ptr, ptr %37, align 8, !tbaa !84
  %.not18.i17 = icmp eq ptr %42, null
  br i1 %.not18.i17, label %.loopexit.sink.split.i22, label %.preheader.i18, !prof !83

.preheader.i18:                                   ; preds = %41, %44
  %.01421.i19 = phi ptr [ %46, %44 ], [ %42, %41 ]
  %43 = icmp eq ptr %.01421.i19, %38
  br i1 %43, label %gts_object_is_from_class.exit24, label %44

44:                                               ; preds = %.preheader.i18
  %45 = getelementptr inbounds nuw i8, ptr %.01421.i19, i64 80
  %46 = load ptr, ptr %45, align 8, !tbaa !85
  %.not20.i20 = icmp eq ptr %46, null
  br i1 %.not20.i20, label %gts_object_is_from_class.exit24.thread, label %.preheader.i18, !llvm.loop !88

.loopexit.sink.split.i22:                         ; preds = %41, %gts_object_is_from_class.exit15.thread
  %.str.3.sink.i23 = phi ptr [ @.str.2, %gts_object_is_from_class.exit15.thread ], [ @.str.3, %41 ]
  call void @g_return_if_fail_warning(ptr noundef null, ptr noundef nonnull @__func__.gts_object_is_from_class, ptr noundef nonnull %.str.3.sink.i23) #19
  br label %gts_object_is_from_class.exit24.thread

gts_object_is_from_class.exit24:                  ; preds = %.preheader.i18
  %47 = load ptr, ptr %5, align 8, !tbaa !32
  %48 = getelementptr inbounds nuw i8, ptr %47, i64 24
  %49 = load ptr, ptr %48, align 8, !tbaa !50
  %50 = load ptr, ptr %8, align 8, !tbaa !42
  %.not6 = icmp eq ptr %49, %50
  br i1 %.not6, label %gts_object_is_from_class.exit24.thread, label %51

gts_object_is_from_class.exit24.thread:           ; preds = %44, %.loopexit.sink.split.i22, %39, %gts_object_is_from_class.exit24
  br label %51

51:                                               ; preds = %gts_object_is_from_class.exit, %gts_object_is_from_class.exit15, %gts_object_is_from_class.exit24, %gts_object_is_from_class.exit24.thread
  %.0 = phi i32 [ 0, %gts_object_is_from_class.exit24.thread ], [ 1, %gts_object_is_from_class.exit24 ], [ 1, %gts_object_is_from_class.exit15 ], [ 1, %gts_object_is_from_class.exit ]
  call void @llvm.lifetime.end.p0(i64 8, ptr nonnull %8) #19
  call void @llvm.lifetime.end.p0(i64 8, ptr nonnull %7) #19
  call void @llvm.lifetime.end.p0(i64 8, ptr nonnull %6) #19
  call void @llvm.lifetime.end.p0(i64 8, ptr nonnull %5) #19
  call void @llvm.lifetime.end.p0(i64 8, ptr nonnull %4) #19
  call void @llvm.lifetime.end.p0(i64 8, ptr nonnull %3) #19
  ret i32 %.0
}